target datalayout = "e-m:e-p270:32:32-p271:32:32-p272:64:64-i64:64-i128:128-f80:128-n8:16:32:64-S128"
target triple = "x86_64-pc-linux-gnu"

%struct.Nm_Man_t_ = type { ptr, ptr, i32, i32, i32, i32, ptr }
%struct.Nm_Entry_t_ = type { i32, i32, ptr, ptr, ptr, [0 x i8] }

@Nm_HashString.s_Primes = internal global [10 x i32] [i32 1291, i32 1699, i32 2357, i32 4177, i32 5147, i32 5647, i32 6343, i32 7103, i32 7873, i32 8147], align 16

; Function Attrs: nounwind uwtable
define internal i32 @Nm_HashString(ptr noundef %0, i32 noundef %1) #0 {
  %3 = alloca ptr, align 8
  %4 = alloca i32, align 4
  %5 = alloca i32, align 4
  %6 = alloca i32, align 4
  store ptr %0, ptr %3, align 8, !tbaa !34
  store i32 %1, ptr %4, align 4, !tbaa !28
  call void @llvm.lifetime.start.p0(i64 4, ptr %5) #8
  call void @llvm.lifetime.start.p0(i64 4, ptr %6) #8
  store i32 0, ptr %6, align 4, !tbaa !28
  store i32 0, ptr %5, align 4, !tbaa !28
  br label %7

7:                                                ; preds = %37, %2
  %8 = load ptr, ptr %3, align 8, !tbaa !34
  %9 = load i32, ptr %5, align 4, !tbaa !28
  %10 = zext i32 %9 to i64
  %11 = getelementptr inbounds nuw i8, ptr %8, i64 %10
  %12 = load i8, ptr %11, align 1, !tbaa !39
  %13 = sext i8 %12 to i32
  %14 = icmp ne i32 %13, 0
  br i1 %14, label %15, label %40

15:                                               ; preds = %7
  %16 = load i32, ptr %5, align 4, !tbaa !28
  %17 = urem i32 %16, 10
  %18 = zext i32 %17 to i64
  %19 = getelementptr inbounds nuw [10 x i32], ptr @Nm_HashString.s_Primes, i64 0, i64 %18
  %20 = load i32, ptr %19, align 4, !tbaa !28
  %21 = load ptr, ptr %3, align 8, !tbaa !34
  %22 = load i32, ptr %5, align 4, !tbaa !28
  %23 = zext i32 %22 to i64
  %24 = getelementptr inbounds nuw i8, ptr %21, i64 %23
  %25 = load i8, ptr %24, align 1, !tbaa !39
  %26 = sext i8 %25 to i32
  %27 = mul nsw i32 %20, %26
  %28 = load ptr, ptr %3, align 8, !tbaa !34
  %29 = load i32, ptr %5, align 4, !tbaa !28
  %30 = zext i32 %29 to i64
  %31 = getelementptr inbounds nuw i8, ptr %28, i64 %30
  %32 = load i8, ptr %31, align 1, !tbaa !39
  %33 = sext i8 %32 to i32
  %34 = mul nsw i32 %27, %33
  %35 = load i32, ptr %6, align 4, !tbaa !28
  %36 = xor i32 %35, %34
  store i32 %36, ptr %6, align 4, !tbaa !28
  br label %37

37:                                               ; preds = %15
  %38 = load i32, ptr %5, align 4, !tbaa !28
  %39 = add i32 %38, 1
  store i32 %39, ptr %5, align 4, !tbaa !28
  br label %7, !llvm.loop !40

40:                                               ; preds = %7
  %41 = load i32, ptr %6, align 4, !tbaa !28
  %42 = load i32, ptr %4, align 4, !tbaa !28
  %43 = urem i32 %41, %42
  call void @llvm.lifetime.end.p0(i64 4, ptr %6) #8
  call void @llvm.lifetime.end.p0(i64 4, ptr %5) #8
  ret i32 %43
}

; Function Attrs: nounwind uwtable
define ptr @Nm_ManTableLookupName(ptr noundef %0, ptr noundef %1, i32 noundef %2) #0 {
  %4 = alloca ptr, align 8
  %5 = alloca ptr, align 8
  %6 = alloca ptr, align 8
  %7 = alloca i32, align 4
  %8 = alloca ptr, align 8
  %9 = alloca ptr, align 8
  %10 = alloca i32, align 4
  store ptr %0, ptr %5, align 8, !tbaa !3
  store ptr %1, ptr %6, align 8, !tbaa !34
  store i32 %2, ptr %7, align 4, !tbaa !28
  call void @llvm.lifetime.start.p0(i64 8, ptr %8) #8
  call void @llvm.lifetime.start.p0(i64 8, ptr %9) #8
  %11 = load ptr, ptr %5, align 8, !tbaa !3
  %12 = getelementptr inbounds nuw %struct.Nm_Man_t_, ptr %11, i32 0, i32 1
  %13 = load ptr, ptr %12, align 8, !tbaa !23
  %14 = load ptr, ptr %6, align 8, !tbaa !34
  %15 = load ptr, ptr %5, align 8, !tbaa !3
  %16 = getelementptr inbounds nuw %struct.Nm_Man_t_, ptr %15, i32 0, i32 2
  %17 = load i32, ptr %16, align 8, !tbaa !15
  %18 = call i32 @Nm_HashString(ptr noundef %14, i32 noundef %17)
  %19 = zext i32 %18 to i64
  %20 = getelementptr inbounds nuw ptr, ptr %13, i64 %19
  %21 = load ptr, ptr %20, align 8, !tbaa !8
  store ptr %21, ptr %8, align 8, !tbaa !8
  br label %22

22:                                               ; preds = %81, %3
  %23 = load ptr, ptr %8, align 8, !tbaa !8
  %24 = icmp ne ptr %23, null
  br i1 %24, label %25, label %85

25:                                               ; preds = %22
  %26 = load ptr, ptr %8, align 8, !tbaa !8
  %27 = getelementptr inbounds nuw %struct.Nm_Entry_t_, ptr %26, i32 0, i32 5
  %28 = getelementptr inbounds [0 x i8], ptr %27, i64 0, i64 0
  %29 = load ptr, ptr %6, align 8, !tbaa !34
  %30 = call i32 @strcmp(ptr noundef %28, ptr noundef %29) #10
  %31 = icmp ne i32 %30, 0
  br i1 %31, label %43, label %32

32:                                               ; preds = %25
  %33 = load i32, ptr %7, align 4, !tbaa !28
  %34 = icmp eq i32 %33, -1
  br i1 %34, label %41, label %35

35:                                               ; preds = %32
  %36 = load ptr, ptr %8, align 8, !tbaa !8
  %37 = getelementptr inbounds nuw %struct.Nm_Entry_t_, ptr %36, i32 0, i32 0
  %38 = load i32, ptr %37, align 8, !tbaa !36
  %39 = load i32, ptr %7, align 4, !tbaa !28
  %40 = icmp eq i32 %38, %39
  br i1 %40, label %41, label %43

41:                                               ; preds = %35, %32
  %42 = load ptr, ptr %8, align 8, !tbaa !8
  store ptr %42, ptr %4, align 8
  store i32 1, ptr %10, align 4
  br label %86

43:                                               ; preds = %35, %25
  %44 = load ptr, ptr %8, align 8, !tbaa !8
  %45 = getelementptr inbounds nuw %struct.Nm_Entry_t_, ptr %44, i32 0, i32 4
  %46 = load ptr, ptr %45, align 8, !tbaa !22
  %47 = icmp eq ptr %46, null
  br i1 %47, label %48, label %49

48:                                               ; preds = %43
  br label %81

49:                                               ; preds = %43
  %50 = load ptr, ptr %8, align 8, !tbaa !8
  %51 = getelementptr inbounds nuw %struct.Nm_Entry_t_, ptr %50, i32 0, i32 4
  %52 = load ptr, ptr %51, align 8, !tbaa !22
  store ptr %52, ptr %9, align 8, !tbaa !8
  br label %53

53:                                               ; preds = %76, %49
  %54 = load ptr, ptr %9, align 8, !tbaa !8
  %55 = load ptr, ptr %8, align 8, !tbaa !8
  %56 = icmp ne ptr %54, %55
  br i1 %56, label %57, label %80

57:                                               ; preds = %53
  %58 = load ptr, ptr %9, align 8, !tbaa !8
  %59 = getelementptr inbounds nuw %struct.Nm_Entry_t_, ptr %58, i32 0, i32 5
  %60 = getelementptr inbounds [0 x i8], ptr %59, i64 0, i64 0
  %61 = load ptr, ptr %6, align 8, !tbaa !34
  %62 = call i32 @strcmp(ptr noundef %60, ptr noundef %61) #10
  %63 = icmp ne i32 %62, 0
  br i1 %63, label %75, label %64

64:                                               ; preds = %57
  %65 = load i32, ptr %7, align 4, !tbaa !28
  %66 = icmp eq i32 %65, -1
  br i1 %66, label %73, label %67

67:                                               ; preds = %64
  %68 = load ptr, ptr %9, align 8, !tbaa !8
  %69 = getelementptr inbounds nuw %struct.Nm_Entry_t_, ptr %68, i32 0, i32 0
  %70 = load i32, ptr %69, align 8, !tbaa !36
  %71 = load i32, ptr %7, align 4, !tbaa !28
  %72 = icmp eq i32 %70, %71
  br i1 %72, label %73, label %75

73:                                               ; preds = %67, %64
  %74 = load ptr, ptr %9, align 8, !tbaa !8
  store ptr %74, ptr %4, align 8
  store i32 1, ptr %10, align 4
  br label %86

75:                                               ; preds = %67, %57
  br label %76

76:                                               ; preds = %75
  %77 = load ptr, ptr %9, align 8, !tbaa !8
  %78 = getelementptr inbounds nuw %struct.Nm_Entry_t_, ptr %77, i32 0, i32 4
  %79 = load ptr, ptr %78, align 8, !tbaa !22
  store ptr %79, ptr %9, align 8, !tbaa !8
  br label %53, !llvm.loop !37

80:                                               ; preds = %53
  br label %81

81:                                               ; preds = %80, %48
  %82 = load ptr, ptr %8, align 8, !tbaa !8
  %83 = getelementptr inbounds nuw %struct.Nm_Entry_t_, ptr %82, i32 0, i32 3
  %84 = load ptr, ptr %83, align 8, !tbaa !24
  store ptr %84, ptr %8, align 8, !tbaa !8
  br label %22, !llvm.loop !38

85:                                               ; preds = %22
  store ptr null, ptr %4, align 8
  store i32 1, ptr %10, align 4
  br label %86

86:                                               ; preds = %85, %73, %41
  call void @llvm.lifetime.end.p0(i64 8, ptr %9) #8
  call void @llvm.lifetime.end.p0(i64 8, ptr %8) #8
  %87 = load ptr, ptr %4, align 8
  ret ptr %87
}