; Function Attrs: nofree nounwind memory(read, inaccessiblemem: none) uwtable
define ptr @Nm_ManTableLookupName(ptr noundef readonly captures(none) %0, ptr noundef readonly captures(none) %1, i32 noundef %2) local_unnamed_addr #2 {
  %4 = getelementptr inbounds nuw i8, ptr %0, i64 8
  %5 = load ptr, ptr %4, align 8, !tbaa !14
  %6 = getelementptr inbounds nuw i8, ptr %0, i64 16
  %7 = load i32, ptr %6, align 8, !tbaa !11
  %8 = load i8, ptr %1, align 1, !tbaa !27
  %.not12.i = icmp eq i8 %8, 0
  br i1 %.not12.i, label %Nm_HashString.exit, label %.lr.ph.i

.lr.ph.i:                                         ; preds = %3, %.lr.ph.i
  %9 = phi i8 [ %21, %.lr.ph.i ], [ %8, %3 ]
  %.014.i = phi i32 [ %17, %.lr.ph.i ], [ 0, %3 ]
  %.01013.i = phi i32 [ %18, %.lr.ph.i ], [ 0, %3 ]
  %10 = sext i8 %9 to i32
  %11 = urem i32 %.01013.i, 10
  %12 = zext nneg i32 %11 to i64
  %13 = getelementptr inbounds nuw [10 x i32], ptr @Nm_HashString.s_Primes, i64 0, i64 %12
  %14 = load i32, ptr %13, align 4, !tbaa !28
  %15 = mul nsw i32 %10, %10
  %16 = mul i32 %15, %14
  %17 = xor i32 %16, %.014.i
  %18 = add i32 %.01013.i, 1
  %19 = zext i32 %18 to i64
  %20 = getelementptr inbounds nuw i8, ptr %1, i64 %19
  %21 = load i8, ptr %20, align 1, !tbaa !27
  %.not.i = icmp eq i8 %21, 0
  br i1 %.not.i, label %Nm_HashString.exit, label %.lr.ph.i, !llvm.loop !29

Nm_HashString.exit:                               ; preds = %.lr.ph.i, %3
  %.0.lcssa.i = phi i32 [ 0, %3 ], [ %17, %.lr.ph.i ]
  %22 = urem i32 %.0.lcssa.i, %7
  %23 = zext i32 %22 to i64
  %24 = getelementptr inbounds nuw ptr, ptr %5, i64 %23
  %.02235 = load ptr, ptr %24, align 8, !tbaa !19
  %.not36 = icmp eq ptr %.02235, null
  br i1 %.not36, label %.loopexit29, label %.lr.ph40

.lr.ph40:                                         ; preds = %Nm_HashString.exit
  %25 = icmp eq i32 %2, -1
  br i1 %25, label %.lr.ph40.split.us, label %.lr.ph40.split.split

.lr.ph40.split.us:                                ; preds = %.lr.ph40, %.loopexit.us
  %.02237.us = phi ptr [ %.022.us, %.loopexit.us ], [ %.02235, %.lr.ph40 ]
  %26 = getelementptr inbounds nuw i8, ptr %.02237.us, i64 32
  %27 = tail call i32 @strcmp(ptr noundef nonnull dereferenceable(1) %26, ptr noundef nonnull dereferenceable(1) %1) #13
  %.not26.us = icmp eq i32 %27, 0
  br i1 %.not26.us, label %.loopexit29, label %28

28:                                               ; preds = %.lr.ph40.split.us
  %29 = getelementptr inbounds nuw i8, ptr %.02237.us, i64 24
  %30 = load ptr, ptr %29, align 8, !tbaa !32
  %31 = icmp eq ptr %30, null
  %.not2732.us = icmp eq ptr %30, %.02237.us
  %or.cond = or i1 %31, %.not2732.us
  br i1 %or.cond, label %.loopexit.us, label %.lr.ph.us

.loopexit.us:                                     ; preds = %35, %28
  %32 = getelementptr inbounds nuw i8, ptr %.02237.us, i64 16
  %.022.us = load ptr, ptr %32, align 8, !tbaa !19
  %.not.us = icmp eq ptr %.022.us, null
  br i1 %.not.us, label %.loopexit29, label %.lr.ph40.split.us, !llvm.loop !33

.lr.ph.us:                                        ; preds = %28, %35
  %.033.us.us = phi ptr [ %37, %35 ], [ %30, %28 ]
  %33 = getelementptr inbounds nuw i8, ptr %.033.us.us, i64 32
  %34 = tail call i32 @strcmp(ptr noundef nonnull dereferenceable(1) %33, ptr noundef nonnull dereferenceable(1) %1) #13
  %.not28.us.us = icmp eq i32 %34, 0
  br i1 %.not28.us.us, label %.loopexit29, label %35

35:                                               ; preds = %.lr.ph.us
  %36 = getelementptr inbounds nuw i8, ptr %.033.us.us, i64 24
  %37 = load ptr, ptr %36, align 8, !tbaa !32
  %.not27.us.us = icmp eq ptr %37, %.02237.us
  br i1 %.not27.us.us, label %.loopexit.us, label %.lr.ph.us, !llvm.loop !34

.lr.ph40.split.split:                             ; preds = %.lr.ph40, %.loopexit
  %.02237 = phi ptr [ %.022, %.loopexit ], [ %.02235, %.lr.ph40 ]
  %38 = getelementptr inbounds nuw i8, ptr %.02237, i64 32
  %39 = tail call i32 @strcmp(ptr noundef nonnull dereferenceable(1) %38, ptr noundef nonnull dereferenceable(1) %1) #13
  %.not26 = icmp eq i32 %39, 0
  br i1 %.not26, label %40, label %43

40:                                               ; preds = %.lr.ph40.split.split
  %41 = load i32, ptr %.02237, align 8, !tbaa !35
  %42 = icmp eq i32 %41, %2
  br i1 %42, label %.loopexit29, label %43

43:                                               ; preds = %40, %.lr.ph40.split.split
  %44 = getelementptr inbounds nuw i8, ptr %.02237, i64 24
  %45 = load ptr, ptr %44, align 8, !tbaa !32
  %46 = icmp eq ptr %45, null
  %.not2732 = icmp eq ptr %45, %.02237
  %or.cond66 = or i1 %46, %.not2732
  br i1 %or.cond66, label %.loopexit, label %.lr.ph

.lr.ph:                                           ; preds = %43, %52
  %.033 = phi ptr [ %54, %52 ], [ %45, %43 ]
  %47 = getelementptr inbounds nuw i8, ptr %.033, i64 32
  %48 = tail call i32 @strcmp(ptr noundef nonnull dereferenceable(1) %47, ptr noundef nonnull dereferenceable(1) %1) #13
  %.not28 = icmp eq i32 %48, 0
  br i1 %.not28, label %49, label %52

49:                                               ; preds = %.lr.ph
  %50 = load i32, ptr %.033, align 8, !tbaa !35
  %51 = icmp eq i32 %50, %2
  br i1 %51, label %.loopexit29, label %52

52:                                               ; preds = %.lr.ph, %49
  %53 = getelementptr inbounds nuw i8, ptr %.033, i64 24
  %54 = load ptr, ptr %53, align 8, !tbaa !32
  %.not27 = icmp eq ptr %54, %.02237
  br i1 %.not27, label %.loopexit, label %.lr.ph, !llvm.loop !34

.loopexit:                                        ; preds = %52, %43
  %55 = getelementptr inbounds nuw i8, ptr %.02237, i64 16
  %.022 = load ptr, ptr %55, align 8, !tbaa !19
  %.not = icmp eq ptr %.022, null
  br i1 %.not, label %.loopexit29, label %.lr.ph40.split.split, !llvm.loop !33

.loopexit29:                                      ; preds = %40, %.loopexit, %49, %.lr.ph40.split.us, %.loopexit.us, %.lr.ph.us, %Nm_HashString.exit
  %.023 = phi ptr [ null, %Nm_HashString.exit ], [ %.033.us.us, %.lr.ph.us ], [ %.02237.us, %.lr.ph40.split.us ], [ null, %.loopexit.us ], [ %.033, %49 ], [ %.02237, %40 ], [ null, %.loopexit ]
  ret ptr %.023
}